; ModuleID = '7/797.c'
source_filename = "7/797.c"
target datalayout = "e-m:e-p270:32:32-p271:32:32-p272:64:64-i64:64-f80:128-n8:16:32:64-S128"
target triple = "x86_64-pc-linux-gnu"

@.str = private unnamed_addr constant [3 x i8] c"%s\00", align 1
@.str.1 = private unnamed_addr constant [3 x i8] c"%c\00", align 1

; Function Attrs: noinline nounwind uwtable
define dso_local i32 @main() #0 {
  %1 = alloca i32, align 4
  %2 = alloca [256 x i8], align 16
  %3 = alloca [256 x i8], align 16
  %4 = alloca [20 x i8], align 16
  %5 = alloca [20 x i8], align 16
  %6 = alloca i32, align 4
  %7 = alloca i32, align 4
  %8 = alloca i32, align 4
  %9 = alloca i32, align 4
  %10 = alloca i32, align 4
  %11 = alloca i32, align 4
  %12 = alloca i32, align 4
  %13 = alloca i32, align 4
  store i32 0, i32* %1, align 4
  store i32 1, i32* %8, align 4
  store i32 0, i32* %9, align 4
  %14 = getelementptr inbounds [256 x i8], [256 x i8]* %2, i64 0, i64 0
  %15 = call i32 (i8*, ...) bitcast (i32 (...)* @gets to i32 (i8*, ...)*)(i8* %14)
  %16 = getelementptr inbounds [256 x i8], [256 x i8]* %3, i64 0, i64 0
  %17 = call i32 (i8*, ...) bitcast (i32 (...)* @gets to i32 (i8*, ...)*)(i8* %16)
  %18 = getelementptr inbounds [20 x i8], [20 x i8]* %4, i64 0, i64 0
  %19 = call i32 (i8*, ...) bitcast (i32 (...)* @gets to i32 (i8*, ...)*)(i8* %18)
  %20 = getelementptr inbounds [256 x i8], [256 x i8]* %3, i64 0, i64 0
  %21 = call i64 @strlen(i8* %20) #3
  %22 = trunc i64 %21 to i32
  store i32 %22, i32* %10, align 4
  %23 = getelementptr inbounds [256 x i8], [256 x i8]* %2, i64 0, i64 0
  %24 = call i64 @strlen(i8* %23) #3
  %25 = trunc i64 %24 to i32
  store i32 %25, i32* %11, align 4
  store i32 0, i32* %12, align 4
  br label %26

26:                                               ; preds = %69, %0
  %27 = load i32, i32* %12, align 4
  %28 = load i32, i32* %11, align 4
  %29 = icmp slt i32 %27, %28
  br i1 %29, label %30, label %72

30:                                               ; preds = %26
  %31 = load i32, i32* %12, align 4
  store i32 %31, i32* %13, align 4
  br label %32

32:                                               ; preds = %48, %30
  %33 = load i32, i32* %13, align 4
  %34 = load i32, i32* %12, align 4
  %35 = load i32, i32* %10, align 4
  %36 = add nsw i32 %34, %35
  %37 = icmp slt i32 %33, %36
  br i1 %37, label %38, label %51

38:                                               ; preds = %32
  %39 = load i32, i32* %13, align 4
  %40 = sext i32 %39 to i64
  %41 = getelementptr inbounds [256 x i8], [256 x i8]* %2, i64 0, i64 %40
  %42 = load i8, i8* %41, align 1
  %43 = load i32, i32* %13, align 4
  %44 = load i32, i32* %12, align 4
  %45 = sub nsw i32 %43, %44
  %46 = sext i32 %45 to i64
  %47 = getelementptr inbounds [20 x i8], [20 x i8]* %5, i64 0, i64 %46
  store i8 %42, i8* %47, align 1
  br label %48

48:                                               ; preds = %38
  %49 = load i32, i32* %13, align 4
  %50 = add nsw i32 %49, 1
  store i32 %50, i32* %13, align 4
  br label %32

51:                                               ; preds = %32
  %52 = load i32, i32* %10, align 4
  %53 = sext i32 %52 to i64
  %54 = getelementptr inbounds [20 x i8], [20 x i8]* %5, i64 0, i64 %53
  store i8 0, i8* %54, align 1
  %55 = getelementptr inbounds [20 x i8], [20 x i8]* %5, i64 0, i64 0
  %56 = getelementptr inbounds [256 x i8], [256 x i8]* %3, i64 0, i64 0
  %57 = call i32 @strcmp(i8* %55, i8* %56) #3
  store i32 %57, i32* %6, align 4
  %58 = load i32, i32* %6, align 4
  %59 = load i32, i32* %8, align 4
  %60 = mul nsw i32 %59, %58
  store i32 %60, i32* %8, align 4
  %61 = load i32, i32* %6, align 4
  %62 = icmp eq i32 %61, 0
  br i1 %62, label %63, label %68

63:                                               ; preds = %51
  %64 = load i32, i32* %9, align 4
  %65 = icmp eq i32 %64, 0
  br i1 %65, label %66, label %68

66:                                               ; preds = %63
  %67 = load i32, i32* %12, align 4
  store i32 %67, i32* %7, align 4
  store i32 1, i32* %9, align 4
  br label %68

68:                                               ; preds = %66, %63, %51
  br label %69

69:                                               ; preds = %68
  %70 = load i32, i32* %12, align 4
  %71 = add nsw i32 %70, 1
  store i32 %71, i32* %12, align 4
  br label %26

72:                                               ; preds = %26
  %73 = load i32, i32* %8, align 4
  %74 = icmp ne i32 %73, 0
  br i1 %74, label %75, label %78

75:                                               ; preds = %72
  %76 = getelementptr inbounds [256 x i8], [256 x i8]* %2, i64 0, i64 0
  %77 = call i32 (i8*, ...) @printf(i8* getelementptr inbounds ([3 x i8], [3 x i8]* @.str, i64 0, i64 0), i8* %76)
  br label %118

78:                                               ; preds = %72
  %79 = load i32, i32* %8, align 4
  %80 = icmp eq i32 %79, 0
  br i1 %80, label %81, label %117

81:                                               ; preds = %78
  store i32 0, i32* %12, align 4
  br label %82

82:                                               ; preds = %93, %81
  %83 = load i32, i32* %12, align 4
  %84 = load i32, i32* %7, align 4
  %85 = icmp slt i32 %83, %84
  br i1 %85, label %86, label %96

86:                                               ; preds = %82
  %87 = load i32, i32* %12, align 4
  %88 = sext i32 %87 to i64
  %89 = getelementptr inbounds [256 x i8], [256 x i8]* %2, i64 0, i64 %88
  %90 = load i8, i8* %89, align 1
  %91 = sext i8 %90 to i32
  %92 = call i32 (i8*, ...) @printf(i8* getelementptr inbounds ([3 x i8], [3 x i8]* @.str.1, i64 0, i64 0), i32 %91)
  br label %93

93:                                               ; preds = %86
  %94 = load i32, i32* %12, align 4
  %95 = add nsw i32 %94, 1
  store i32 %95, i32* %12, align 4
  br label %82

96:                                               ; preds = %82
  %97 = getelementptr inbounds [20 x i8], [20 x i8]* %4, i64 0, i64 0
  %98 = call i32 (i8*, ...) @printf(i8* getelementptr inbounds ([3 x i8], [3 x i8]* @.str, i64 0, i64 0), i8* %97)
  %99 = load i32, i32* %7, align 4
  %100 = load i32, i32* %10, align 4
  %101 = add nsw i32 %99, %100
  store i32 %101, i32* %12, align 4
  br label %102

102:                                              ; preds = %113, %96
  %103 = load i32, i32* %12, align 4
  %104 = load i32, i32* %11, align 4
  %105 = icmp slt i32 %103, %104
  br i1 %105, label %106, label %116

106:                                              ; preds = %102
  %107 = load i32, i32* %12, align 4
  %108 = sext i32 %107 to i64
  %109 = getelementptr inbounds [256 x i8], [256 x i8]* %2, i64 0, i64 %108
  %110 = load i8, i8* %109, align 1
  %111 = sext i8 %110 to i32
  %112 = call i32 (i8*, ...) @printf(i8* getelementptr inbounds ([3 x i8], [3 x i8]* @.str.1, i64 0, i64 0), i32 %111)
  br label %113

113:                                              ; preds = %106
  %114 = load i32, i32* %12, align 4
  %115 = add nsw i32 %114, 1
  store i32 %115, i32* %12, align 4
  br label %102

116:                                              ; preds = %102
  br label %117

117:                                              ; preds = %116, %78
  br label %118

118:                                              ; preds = %117, %75
  ret i32 0
}

declare dso_local i32 @gets(...) #1

; Function Attrs: nounwind readonly
declare dso_local i64 @strlen(i8*) #2

; Function Attrs: nounwind readonly
declare dso_local i32 @strcmp(i8*, i8*) #2

declare dso_local i32 @printf(i8*, ...) #1


!llvm.module.flags = !{!0}
!llvm.ident = !{!1}

!0 = !{i32 1, !"wchar_size", i32 4}
!1 = !{!"clang version 10.0.0-4ubuntu1 "}
